target datalayout = "e-m:e-p270:32:32-p271:32:32-p272:64:64-i64:64-i128:128-f80:128-n8:16:32:64-S128"
target triple = "x86_64-pc-linux-gnu"

; Function Attrs: nounwind uwtable
define internal i32 @GetBlendOp(i32 noundef %0) #0 {
  %2 = alloca i32, align 4
  %3 = alloca i32, align 4
  store i32 %0, ptr %3, align 4
  %4 = load i32, ptr %3, align 4
  switch i32 %4, label %10 [
    i32 1, label %5
    i32 2, label %6
    i32 3, label %7
    i32 4, label %8
    i32 5, label %9
  ]

5:                                                ; preds = %1
  store i32 0, ptr %2, align 4
  br label %11

6:                                                ; preds = %1
  store i32 1, ptr %2, align 4
  br label %11

7:                                                ; preds = %1
  store i32 2, ptr %2, align 4
  br label %11

8:                                                ; preds = %1
  store i32 3, ptr %2, align 4
  br label %11

9:                                                ; preds = %1
  store i32 4, ptr %2, align 4
  br label %11

10:                                               ; preds = %1
  store i32 2147483647, ptr %2, align 4
  br label %11

11:                                               ; preds = %10, %9, %8, %7, %6, %5
  %12 = load i32, ptr %2, align 4
  ret i32 %12
}

; Function Attrs: nounwind uwtable
define internal i32 @GetBlendFactor(i32 noundef %0) #0 {
  %2 = alloca i32, align 4
  %3 = alloca i32, align 4
  store i32 %0, ptr %3, align 4
  %4 = load i32, ptr %3, align 4
  switch i32 %4, label %15 [
    i32 1, label %5
    i32 2, label %6
    i32 3, label %7
    i32 4, label %8
    i32 5, label %9
    i32 6, label %10
    i32 7, label %11
    i32 8, label %12
    i32 9, label %13
    i32 10, label %14
  ]

5:                                                ; preds = %1
  store i32 0, ptr %2, align 4
  br label %16

6:                                                ; preds = %1
  store i32 1, ptr %2, align 4
  br label %16

7:                                                ; preds = %1
  store i32 2, ptr %2, align 4
  br label %16

8:                                                ; preds = %1
  store i32 3, ptr %2, align 4
  br label %16

9:                                                ; preds = %1
  store i32 6, ptr %2, align 4
  br label %16

10:                                               ; preds = %1
  store i32 7, ptr %2, align 4
  br label %16

11:                                               ; preds = %1
  store i32 4, ptr %2, align 4
  br label %16

12:                                               ; preds = %1
  store i32 5, ptr %2, align 4
  br label %16

13:                                               ; preds = %1
  store i32 8, ptr %2, align 4
  br label %16

14:                                               ; preds = %1
  store i32 9, ptr %2, align 4
  br label %16

15:                                               ; preds = %1
  store i32 2147483647, ptr %2, align 4
  br label %16

16:                                               ; preds = %15, %14, %13, %12, %11, %10, %9, %8, %7, %6, %5
  %17 = load i32, ptr %2, align 4
  ret i32 %17
}

; Function Attrs: nounwind uwtable
define internal zeroext i1 @VULKAN_SupportsBlendMode(ptr noundef %0, i32 noundef %1) #0 {
  %3 = alloca i1, align 1
  %4 = alloca ptr, align 8
  %5 = alloca i32, align 4
  %6 = alloca i32, align 4
  %7 = alloca i32, align 4
  %8 = alloca i32, align 4
  %9 = alloca i32, align 4
  %10 = alloca i32, align 4
  %11 = alloca i32, align 4
  %12 = alloca i32, align 4
  store ptr %0, ptr %4, align 8
  store i32 %1, ptr %5, align 4
  call void @llvm.lifetime.start.p0(i64 4, ptr %6) #6
  %13 = load i32, ptr %5, align 4
  %14 = call i32 @SDL_GetBlendModeSrcColorFactor(i32 noundef %13)
  store i32 %14, ptr %6, align 4
  call void @llvm.lifetime.start.p0(i64 4, ptr %7) #6
  %15 = load i32, ptr %5, align 4
  %16 = call i32 @SDL_GetBlendModeSrcAlphaFactor(i32 noundef %15)
  store i32 %16, ptr %7, align 4
  call void @llvm.lifetime.start.p0(i64 4, ptr %8) #6
  %17 = load i32, ptr %5, align 4
  %18 = call i32 @SDL_GetBlendModeColorOperation(i32 noundef %17)
  store i32 %18, ptr %8, align 4
  call void @llvm.lifetime.start.p0(i64 4, ptr %9) #6
  %19 = load i32, ptr %5, align 4
  %20 = call i32 @SDL_GetBlendModeDstColorFactor(i32 noundef %19)
  store i32 %20, ptr %9, align 4
  call void @llvm.lifetime.start.p0(i64 4, ptr %10) #6
  %21 = load i32, ptr %5, align 4
  %22 = call i32 @SDL_GetBlendModeDstAlphaFactor(i32 noundef %21)
  store i32 %22, ptr %10, align 4
  call void @llvm.lifetime.start.p0(i64 4, ptr %11) #6
  %23 = load i32, ptr %5, align 4
  %24 = call i32 @SDL_GetBlendModeAlphaOperation(i32 noundef %23)
  store i32 %24, ptr %11, align 4
  %25 = load i32, ptr %6, align 4
  %26 = call i32 @GetBlendFactor(i32 noundef %25)
  %27 = icmp eq i32 %26, 2147483647
  br i1 %27, label %48, label %28

28:                                               ; preds = %2
  %29 = load i32, ptr %7, align 4
  %30 = call i32 @GetBlendFactor(i32 noundef %29)
  %31 = icmp eq i32 %30, 2147483647
  br i1 %31, label %48, label %32

32:                                               ; preds = %28
  %33 = load i32, ptr %8, align 4
  %34 = call i32 @GetBlendOp(i32 noundef %33)
  %35 = icmp eq i32 %34, 2147483647
  br i1 %35, label %48, label %36

36:                                               ; preds = %32
  %37 = load i32, ptr %9, align 4
  %38 = call i32 @GetBlendFactor(i32 noundef %37)
  %39 = icmp eq i32 %38, 2147483647
  br i1 %39, label %48, label %40

40:                                               ; preds = %36
  %41 = load i32, ptr %10, align 4
  %42 = call i32 @GetBlendFactor(i32 noundef %41)
  %43 = icmp eq i32 %42, 2147483647
  br i1 %43, label %48, label %44

44:                                               ; preds = %40
  %45 = load i32, ptr %11, align 4
  %46 = call i32 @GetBlendOp(i32 noundef %45)
  %47 = icmp eq i32 %46, 2147483647
  br i1 %47, label %48, label %49

48:                                               ; preds = %44, %40, %36, %32, %28, %2
  store i1 false, ptr %3, align 1
  store i32 1, ptr %12, align 4
  br label %50

49:                                               ; preds = %44
  store i1 true, ptr %3, align 1
  store i32 1, ptr %12, align 4
  br label %50

50:                                               ; preds = %49, %48
  call void @llvm.lifetime.end.p0(i64 4, ptr %11) #6
  call void @llvm.lifetime.end.p0(i64 4, ptr %10) #6
  call void @llvm.lifetime.end.p0(i64 4, ptr %9) #6
  call void @llvm.lifetime.end.p0(i64 4, ptr %8) #6
  call void @llvm.lifetime.end.p0(i64 4, ptr %7) #6
  call void @llvm.lifetime.end.p0(i64 4, ptr %6) #6
  %51 = load i1, ptr %3, align 1
  ret i1 %51
}