; Function Attrs: nounwind uwtable
define internal zeroext i1 @VULKAN_SupportsBlendMode(ptr readnone captures(none) %0, i32 noundef %1) #0 {
GetBlendFactor.exit:
  %2 = tail call i32 @SDL_GetBlendModeSrcColorFactor(i32 noundef %1) #8
  %3 = tail call i32 @SDL_GetBlendModeSrcAlphaFactor(i32 noundef %1) #8
  %4 = tail call i32 @SDL_GetBlendModeColorOperation(i32 noundef %1) #8
  %5 = tail call i32 @SDL_GetBlendModeDstColorFactor(i32 noundef %1) #8
  %6 = tail call i32 @SDL_GetBlendModeDstAlphaFactor(i32 noundef %1) #8
  %7 = tail call i32 @SDL_GetBlendModeAlphaOperation(i32 noundef %1) #8
  %.off = add i32 %2, -1
  %switch = icmp ult i32 %.off, 10
  %.off27 = add i32 %3, -1
  %switch28 = icmp ult i32 %.off27, 10
  %or.cond = select i1 %switch, i1 %switch28, i1 false
  %.off29 = add i32 %4, -1
  %switch30 = icmp ult i32 %.off29, 5
  %or.cond31 = select i1 %or.cond, i1 %switch30, i1 false
  %.off32 = add i32 %5, -1
  %switch33 = icmp ult i32 %.off32, 10
  %or.cond34 = select i1 %or.cond31, i1 %switch33, i1 false
  %.off35 = add i32 %6, -1
  %switch36 = icmp ult i32 %.off35, 10
  %or.cond37 = select i1 %or.cond34, i1 %switch36, i1 false
  %.off38 = add i32 %7, -1
  %switch39 = icmp ult i32 %.off38, 5
  %or.cond40 = select i1 %or.cond37, i1 %switch39, i1 false
  ret i1 %or.cond40
}